target datalayout = "e-m:e-p270:32:32-p271:32:32-p272:64:64-i64:64-i128:128-f80:128-n8:16:32:64-S128"
target triple = "x86_64-unknown-linux-gnu"

%"struct.arith::sls::ineq" = type <{ %class.vector.112, i32, [4 x i8], i64, i64, i32, [4 x i8] }>
%class.vector.112 = type { ptr }
%"struct.std::pair.251" = type <{ i64, i32, [4 x i8] }>

; Function Attrs: mustprogress nounwind uwtable
define linkonce_odr hidden noundef nonnull align 4 dereferenceable(4) ptr @_ZNSt10__pair_getILm1EE11__const_getIljEERKT0_RKSt4pairIT_S2_E(ptr noundef nonnull align 8 dereferenceable(12) %__pair) #4 comdat align 2 {
entry:
  %__pair.addr = alloca ptr, align 8
  store ptr %__pair, ptr %__pair.addr, align 8
  %0 = load ptr, ptr %__pair.addr, align 8
  %second = getelementptr inbounds %"struct.std::pair.251", ptr %0, i32 0, i32 1
  ret ptr %second
}

; Function Attrs: mustprogress nounwind uwtable
define linkonce_odr hidden noundef nonnull align 8 dereferenceable(8) ptr @_ZNSt10__pair_getILm0EE11__const_getIljEERKT_RKSt4pairIS2_T0_E(ptr noundef nonnull align 8 dereferenceable(12) %__pair) #4 comdat align 2 {
entry:
  %__pair.addr = alloca ptr, align 8
  store ptr %__pair, ptr %__pair.addr, align 8
  %0 = load ptr, ptr %__pair.addr, align 8
  %first = getelementptr inbounds %"struct.std::pair.251", ptr %0, i32 0, i32 0
  ret ptr %first
}

; Function Attrs: mustprogress nounwind uwtable
define linkonce_odr hidden noundef i32 @_ZNK6vectorISt4pairIljELb1EjE4sizeEv(ptr noundef nonnull align 8 dereferenceable(8) %this) #4 comdat align 2 {
entry:
  %retval = alloca i32, align 4
  %this.addr = alloca ptr, align 8
  store ptr %this, ptr %this.addr, align 8
  %this1 = load ptr, ptr %this.addr, align 8
  %m_data = getelementptr inbounds %class.vector.112, ptr %this1, i32 0, i32 0
  %0 = load ptr, ptr %m_data, align 8
  %cmp = icmp eq ptr %0, null
  br i1 %cmp, label %if.then, label %if.end

if.then:                                          ; preds = %entry
  store i32 0, ptr %retval, align 4
  br label %return

if.end:                                           ; preds = %entry
  %m_data2 = getelementptr inbounds %class.vector.112, ptr %this1, i32 0, i32 0
  %1 = load ptr, ptr %m_data2, align 8
  %arrayidx = getelementptr inbounds i32, ptr %1, i64 -1
  %2 = load i32, ptr %arrayidx, align 4
  store i32 %2, ptr %retval, align 4
  br label %return

return:                                           ; preds = %if.end, %if.then
  %3 = load i32, ptr %retval, align 4
  ret i32 %3
}

; Function Attrs: mustprogress nounwind uwtable
define linkonce_odr noundef nonnull align 4 dereferenceable(4) ptr @_ZSt3getILm1EljERKNSt13tuple_elementIXT_ESt4pairIT0_T1_EE4typeERKS4_(ptr noundef nonnull align 8 dereferenceable(12) %__in) #4 comdat {
entry:
  %__in.addr = alloca ptr, align 8
  store ptr %__in, ptr %__in.addr, align 8
  %0 = load ptr, ptr %__in.addr, align 8
  %call = call noundef nonnull align 4 dereferenceable(4) ptr @_ZNSt10__pair_getILm1EE11__const_getIljEERKT0_RKSt4pairIT_S2_E(ptr noundef nonnull align 8 dereferenceable(12) %0) #3
  ret ptr %call
}

; Function Attrs: mustprogress nounwind uwtable
define linkonce_odr noundef nonnull align 8 dereferenceable(8) ptr @_ZSt3getILm0EljERKNSt13tuple_elementIXT_ESt4pairIT0_T1_EE4typeERKS4_(ptr noundef nonnull align 8 dereferenceable(12) %__in) #4 comdat {
entry:
  %__in.addr = alloca ptr, align 8
  store ptr %__in, ptr %__in.addr, align 8
  %0 = load ptr, ptr %__in.addr, align 8
  %call = call noundef nonnull align 8 dereferenceable(8) ptr @_ZNSt10__pair_getILm0EE11__const_getIljEERKT_RKSt4pairIS2_T0_E(ptr noundef nonnull align 8 dereferenceable(12) %0) #3
  ret ptr %call
}

; Function Attrs: mustprogress uwtable
define linkonce_odr hidden noundef ptr @_ZNK6vectorISt4pairIljELb1EjE3endEv(ptr noundef nonnull align 8 dereferenceable(8) %this) #5 comdat align 2 {
entry:
  %this.addr = alloca ptr, align 8
  store ptr %this, ptr %this.addr, align 8
  %this1 = load ptr, ptr %this.addr, align 8
  %m_data = getelementptr inbounds %class.vector.112, ptr %this1, i32 0, i32 0
  %0 = load ptr, ptr %m_data, align 8
  %call = call noundef i32 @_ZNK6vectorISt4pairIljELb1EjE4sizeEv(ptr noundef nonnull align 8 dereferenceable(8) %this1)
  %idx.ext = zext i32 %call to i64
  %add.ptr = getelementptr inbounds %"struct.std::pair.251", ptr %0, i64 %idx.ext
  ret ptr %add.ptr
}

; Function Attrs: mustprogress nounwind uwtable
define linkonce_odr hidden noundef ptr @_ZNK6vectorISt4pairIljELb1EjE5beginEv(ptr noundef nonnull align 8 dereferenceable(8) %this) #4 comdat align 2 {
entry:
  %this.addr = alloca ptr, align 8
  store ptr %this, ptr %this.addr, align 8
  %this1 = load ptr, ptr %this.addr, align 8
  %m_data = getelementptr inbounds %class.vector.112, ptr %this1, i32 0, i32 0
  %0 = load ptr, ptr %m_data, align 8
  ret ptr %0
}

; Function Attrs: mustprogress uwtable
define hidden noundef zeroext i1 @_ZN5arith3sls2cmEbRKNS0_4ineqEjRl(ptr noundef nonnull align 8 dereferenceable(97) %this, i1 noundef zeroext %old_sign, ptr noundef nonnull align 8 dereferenceable(36) %ineq, i32 noundef %v, ptr noundef nonnull align 8 dereferenceable(8) %new_value) #5 align 2 {
entry:
  %retval = alloca i1, align 1
  %this.addr = alloca ptr, align 8
  %old_sign.addr = alloca i8, align 1
  %ineq.addr = alloca ptr, align 8
  %v.addr = alloca i32, align 4
  %new_value.addr = alloca ptr, align 8
  %__range1 = alloca ptr, align 8
  %__begin1 = alloca ptr, align 8
  %__end1 = alloca ptr, align 8
  %0 = alloca ptr, align 8
  %coeff = alloca ptr, align 8
  %w = alloca ptr, align 8
  store ptr %this, ptr %this.addr, align 8
  %frombool = zext i1 %old_sign to i8
  store i8 %frombool, ptr %old_sign.addr, align 1
  store ptr %ineq, ptr %ineq.addr, align 8
  store i32 %v, ptr %v.addr, align 4
  store ptr %new_value, ptr %new_value.addr, align 8
  %this1 = load ptr, ptr %this.addr, align 8
  %1 = load ptr, ptr %ineq.addr, align 8
  %m_args = getelementptr inbounds %"struct.arith::sls::ineq", ptr %1, i32 0, i32 0
  store ptr %m_args, ptr %__range1, align 8
  %2 = load ptr, ptr %__range1, align 8
  %call = call noundef ptr @_ZNK6vectorISt4pairIljELb1EjE5beginEv(ptr noundef nonnull align 8 dereferenceable(8) %2)
  store ptr %call, ptr %__begin1, align 8
  %3 = load ptr, ptr %__range1, align 8
  %call2 = call noundef ptr @_ZNK6vectorISt4pairIljELb1EjE3endEv(ptr noundef nonnull align 8 dereferenceable(8) %3)
  store ptr %call2, ptr %__end1, align 8
  br label %for.cond

for.cond:                                         ; preds = %for.inc, %entry
  %4 = load ptr, ptr %__begin1, align 8
  %5 = load ptr, ptr %__end1, align 8
  %cmp = icmp ne ptr %4, %5
  br i1 %cmp, label %for.body, label %for.end

for.body:                                         ; preds = %for.cond
  %6 = load ptr, ptr %__begin1, align 8
  store ptr %6, ptr %0, align 8
  %7 = load ptr, ptr %0, align 8
  %call3 = call noundef nonnull align 8 dereferenceable(8) ptr @_ZSt3getILm0EljERKNSt13tuple_elementIXT_ESt4pairIT0_T1_EE4typeERKS4_(ptr noundef nonnull align 8 dereferenceable(12) %7) #3
  store ptr %call3, ptr %coeff, align 8
  %8 = load ptr, ptr %0, align 8
  %call4 = call noundef nonnull align 4 dereferenceable(4) ptr @_ZSt3getILm1EljERKNSt13tuple_elementIXT_ESt4pairIT0_T1_EE4typeERKS4_(ptr noundef nonnull align 8 dereferenceable(12) %8) #3
  store ptr %call4, ptr %w, align 8
  %9 = load ptr, ptr %w, align 8
  %10 = load i32, ptr %9, align 4
  %11 = load i32, ptr %v.addr, align 4
  %cmp5 = icmp eq i32 %10, %11
  br i1 %cmp5, label %if.then, label %if.end

if.then:                                          ; preds = %for.body
  %12 = load i8, ptr %old_sign.addr, align 1
  %tobool = trunc i8 %12 to i1
  %13 = load ptr, ptr %ineq.addr, align 8
  %14 = load i32, ptr %v.addr, align 4
  %15 = load ptr, ptr %coeff, align 8
  %16 = load i64, ptr %15, align 8
  %17 = load ptr, ptr %new_value.addr, align 8
  %call6 = call noundef zeroext i1 @_ZN5arith3sls2cmEbRKNS0_4ineqEjlRl(ptr noundef nonnull align 8 dereferenceable(97) %this1, i1 noundef zeroext %tobool, ptr noundef nonnull align 8 dereferenceable(36) %13, i32 noundef %14, i64 noundef %16, ptr noundef nonnull align 8 dereferenceable(8) %17)
  store i1 %call6, ptr %retval, align 1
  br label %return

if.end:                                           ; preds = %for.body
  br label %for.inc

for.inc:                                          ; preds = %if.end
  %18 = load ptr, ptr %__begin1, align 8
  %incdec.ptr = getelementptr inbounds %"struct.std::pair.251", ptr %18, i32 1
  store ptr %incdec.ptr, ptr %__begin1, align 8
  br label %for.cond

for.end:                                          ; preds = %for.cond
  store i1 false, ptr %retval, align 1
  br label %return

return:                                           ; preds = %for.end, %if.then
  %19 = load i1, ptr %retval, align 1
  ret i1 %19
}