; Function Attrs: mustprogress uwtable
define hidden noundef zeroext i1 @_ZN5arith3sls2cmEbRKNS0_4ineqEjRl(ptr noundef nonnull align 8 dereferenceable(97) %this, i1 noundef zeroext %old_sign, ptr noundef nonnull align 8 dereferenceable(36) %ineq, i32 noundef %v, ptr noundef nonnull align 8 dereferenceable(8) %new_value) local_unnamed_addr #5 align 2 {
entry:
  %0 = load ptr, ptr %ineq, align 8
  %cmp.i.i = icmp eq ptr %0, null
  br i1 %cmp.i.i, label %return, label %_ZNK6vectorISt4pairIljELb1EjE3endEv.exit

_ZNK6vectorISt4pairIljELb1EjE3endEv.exit:         ; preds = %entry
  %arrayidx.i.i = getelementptr inbounds i8, ptr %0, i64 -4
  %1 = load i32, ptr %arrayidx.i.i, align 4
  %2 = zext i32 %1 to i64
  %add.ptr.i = getelementptr inbounds %"struct.std::pair.251", ptr %0, i64 %2
  %cmp.not8 = icmp eq i32 %1, 0
  br i1 %cmp.not8, label %return, label %for.body

for.body:                                         ; preds = %_ZNK6vectorISt4pairIljELb1EjE3endEv.exit, %for.inc
  %__begin1.09 = phi ptr [ %incdec.ptr, %for.inc ], [ %0, %_ZNK6vectorISt4pairIljELb1EjE3endEv.exit ]
  %second.i.i = getelementptr inbounds i8, ptr %__begin1.09, i64 8
  %3 = load i32, ptr %second.i.i, align 4
  %cmp5 = icmp eq i32 %3, %v
  br i1 %cmp5, label %if.then, label %for.inc

if.then:                                          ; preds = %for.body
  %4 = load i64, ptr %__begin1.09, align 8
  %call6 = tail call noundef zeroext i1 @_ZN5arith3sls2cmEbRKNS0_4ineqEjlRl(ptr noundef nonnull align 8 dereferenceable(97) %this, i1 noundef zeroext %old_sign, ptr noundef nonnull align 8 dereferenceable(36) %ineq, i32 noundef %v, i64 noundef %4, ptr noundef nonnull align 8 dereferenceable(8) %new_value)
  br label %return

for.inc:                                          ; preds = %for.body
  %incdec.ptr = getelementptr inbounds i8, ptr %__begin1.09, i64 16
  %cmp.not = icmp eq ptr %incdec.ptr, %add.ptr.i
  br i1 %cmp.not, label %return, label %for.body

return:                                           ; preds = %for.inc, %entry, %_ZNK6vectorISt4pairIljELb1EjE3endEv.exit, %if.then
  %retval.0 = phi i1 [ %call6, %if.then ], [ false, %_ZNK6vectorISt4pairIljELb1EjE3endEv.exit ], [ false, %entry ], [ false, %for.inc ]
  ret i1 %retval.0
}